; Function Attrs: nounwind uwtable
define dso_local i64 @show_config_by_name_missing_ok(ptr noundef captures(none) %0) local_unnamed_addr #0 {
  %2 = getelementptr inbounds nuw i8, ptr %0, i64 32
  %3 = load i64, ptr %2, align 8
  %4 = inttoptr i64 %3 to ptr
  %5 = tail call ptr @text_to_cstring(ptr noundef %4) #7
  %6 = getelementptr inbounds nuw i8, ptr %0, i64 48
  %7 = load i64, ptr %6, align 8
  %8 = icmp ne i64 %7, 0
  %9 = tail call ptr @GetConfigOptionByName(ptr noundef %5, ptr noundef null, i1 noundef zeroext %8) #7
  %10 = icmp eq ptr %9, null
  br i1 %10, label %11, label %13

11:                                               ; preds = %1
  %12 = getelementptr inbounds nuw i8, ptr %0, i64 28
  store i8 1, ptr %12, align 4
  br label %16

13:                                               ; preds = %1
  %14 = tail call ptr @cstring_to_text(ptr noundef nonnull %9) #7
  %15 = ptrtoint ptr %14 to i64
  br label %16

16:                                               ; preds = %13, %11
  %.0 = phi i64 [ 0, %11 ], [ %15, %13 ]
  ret i64 %.0
}